(dp0
S'cwPreds'
p1
S'teaches,advises,takes'
p2
sS'bif'
p3
S'grades.xml'
p4
sS'db'
p5
S'grades.blogdb'
p6
sS'blog'
p7
S'grades.blog'
p8
sS'geometry'
p9
S'743x912+495+84'
p10
sS'bln_rename'
p11
I1
sS'params'
p12
S''
p13
sS'bln'
p14
S'grades.blnl'
p15
sS'blog_rename'
p16
I0
sS'maxSteps'
p17
S'10000'
p18
sS'queryByDB'
p19
(dp20
S'grades.blogdb'
p21
S'grade(x,CS106)'
p22
ssS'query'
p23
g22
sS'method'
p24
S'Backward Sampling with Children'
p25
sS'db_rename'
p26
I0
s.