(dp0
S'netOutputFilename'
p1
S'meals_any_for.learnt.xml'
p2
sS'learnDomains'
p3
I1
sS'bif'
p4
S'meals_any_for.xml'
p5
sS'ignoreData'
p6
I1
sS'db'
p7
S'meals_any_for.blogdb'
p8
sS'outputFilename'
p9
S'meals_any_for.learnt.blog'
p10
sS'blog'
p11
S'meals_any_for.blog'
p12
sS'geometry'
p13
S'736x721+396+172'
p14
sS'params'
p15
S'-ud'
p16
sS'blog_rename'
p17
I0
s.